; ModuleID = '1202.c'
source_filename = "1202.c"
target datalayout = "e-m:e-p270:32:32-p271:32:32-p272:64:64-i64:64-f80:128-n8:16:32:64-S128"
target triple = "x86_64-pc-linux-gnu"

@.str = private unnamed_addr constant [2 x i8] c"0\00", align 1
@.str.1 = private unnamed_addr constant [2 x i8] c"-\00", align 1
@.str.2 = private unnamed_addr constant [3 x i8] c"%d\00", align 1
@.str.3 = private unnamed_addr constant [4 x i8] c"%d\0A\00", align 1

; Function Attrs: noinline nounwind uwtable
define dso_local i32 @reverse(i32 %0) #0 {
  %2 = alloca i32, align 4
  %3 = alloca i32, align 4
  %4 = alloca i32, align 4
  %5 = alloca i32, align 4
  %6 = alloca i32, align 4
  %7 = alloca i32, align 4
  %8 = alloca i32, align 4
  store i32 %0, i32* %2, align 4
  %9 = load i32, i32* %2, align 4
  %10 = icmp eq i32 %9, 0
  br i1 %10, label %11, label %13

11:                                               ; preds = %1
  %12 = call i32 (i8*, ...) @printf(i8* getelementptr inbounds ([2 x i8], [2 x i8]* @.str, i64 0, i64 0))
  br label %21

13:                                               ; preds = %1
  %14 = load i32, i32* %2, align 4
  %15 = icmp slt i32 %14, 0
  br i1 %15, label %16, label %20

16:                                               ; preds = %13
  %17 = load i32, i32* %2, align 4
  %18 = sub nsw i32 0, %17
  store i32 %18, i32* %2, align 4
  %19 = call i32 (i8*, ...) @printf(i8* getelementptr inbounds ([2 x i8], [2 x i8]* @.str.1, i64 0, i64 0))
  br label %20

20:                                               ; preds = %16, %13
  br label %21

21:                                               ; preds = %20, %11
  %22 = load i32, i32* %2, align 4
  %23 = sdiv i32 %22, 10000
  store i32 %23, i32* %3, align 4
  %24 = load i32, i32* %2, align 4
  %25 = srem i32 %24, 10000
  %26 = sdiv i32 %25, 1000
  store i32 %26, i32* %4, align 4
  %27 = load i32, i32* %2, align 4
  %28 = srem i32 %27, 1000
  %29 = sdiv i32 %28, 100
  store i32 %29, i32* %5, align 4
  %30 = load i32, i32* %2, align 4
  %31 = srem i32 %30, 100
  %32 = sdiv i32 %31, 10
  store i32 %32, i32* %6, align 4
  %33 = load i32, i32* %2, align 4
  %34 = srem i32 %33, 10
  store i32 %34, i32* %7, align 4
  %35 = load i32, i32* %7, align 4
  %36 = mul nsw i32 10000, %35
  %37 = load i32, i32* %6, align 4
  %38 = mul nsw i32 1000, %37
  %39 = add nsw i32 %36, %38
  %40 = load i32, i32* %5, align 4
  %41 = mul nsw i32 100, %40
  %42 = add nsw i32 %39, %41
  %43 = load i32, i32* %4, align 4
  %44 = mul nsw i32 10, %43
  %45 = add nsw i32 %42, %44
  %46 = load i32, i32* %3, align 4
  %47 = add nsw i32 %45, %46
  store i32 %47, i32* %8, align 4
  br label %48

48:                                               ; preds = %52, %21
  %49 = load i32, i32* %8, align 4
  %50 = srem i32 %49, 10
  %51 = icmp eq i32 %50, 0
  br i1 %51, label %52, label %55

52:                                               ; preds = %48
  %53 = load i32, i32* %8, align 4
  %54 = sdiv i32 %53, 10
  store i32 %54, i32* %8, align 4
  br label %48

55:                                               ; preds = %48
  %56 = load i32, i32* %8, align 4
  ret i32 %56
}

declare dso_local i32 @printf(i8*, ...) #1

; Function Attrs: noinline nounwind uwtable
define dso_local i32 @main() #0 {
  %1 = alloca i32, align 4
  %2 = alloca i32, align 4
  %3 = alloca i32, align 4
  %4 = alloca i32, align 4
  store i32 0, i32* %1, align 4
  store i32 0, i32* %2, align 4
  br label %5

5:                                                ; preds = %14, %0
  %6 = load i32, i32* %2, align 4
  %7 = icmp slt i32 %6, 6
  br i1 %7, label %8, label %17

8:                                                ; preds = %5
  %9 = call i32 (i8*, ...) @__isoc99_scanf(i8* getelementptr inbounds ([3 x i8], [3 x i8]* @.str.2, i64 0, i64 0), i32* %3)
  %10 = load i32, i32* %3, align 4
  %11 = call i32 @reverse(i32 %10)
  store i32 %11, i32* %4, align 4
  %12 = load i32, i32* %4, align 4
  %13 = call i32 (i8*, ...) @printf(i8* getelementptr inbounds ([4 x i8], [4 x i8]* @.str.3, i64 0, i64 0), i32 %12)
  br label %14

14:                                               ; preds = %8
  %15 = load i32, i32* %2, align 4
  %16 = add nsw i32 %15, 1
  store i32 %16, i32* %2, align 4
  br label %5

17:                                               ; preds = %5
  ret i32 0
}

declare dso_local i32 @__isoc99_scanf(i8*, ...) #1


!llvm.module.flags = !{!0}
!llvm.ident = !{!1}

!0 = !{i32 1, !"wchar_size", i32 4}
!1 = !{!"clang version 10.0.0-4ubuntu1 "}
